target datalayout = "e-m:e-p270:32:32-p271:32:32-p272:64:64-i64:64-i128:128-f80:128-n8:16:32:64-S128"
target triple = "x86_64-pc-linux-gnu"

%struct.slurm_conf_t = type { i64, ptr, i16, ptr, ptr, ptr, ptr, ptr, i16, ptr, ptr, ptr, ptr, ptr, ptr, ptr, i16, ptr, ptr, ptr, ptr, i16, ptr, ptr, ptr, i64, ptr, ptr, ptr, ptr, i16, ptr, ptr, i16, i32, ptr, i32, ptr, i32, i32, ptr, ptr, i64, i64, ptr, i16, i16, ptr, i32, i32, ptr, i32, ptr, i32, i16, i16, i16, ptr, i16, i16, ptr, ptr, i32, i16, i16, ptr, i32, i16, ptr, ptr, ptr, ptr, i16, ptr, ptr, ptr, ptr, i32, ptr, ptr, ptr, ptr, i16, i16, ptr, i32, i32, i32, i16, i16, ptr, ptr, i16, ptr, ptr, i32, i32, i32, i32, i32, i64, i32, i32, i16, ptr, ptr, i32, ptr, ptr, ptr, i16, i32, ptr, ptr, i16, ptr, ptr, i32, i16, ptr, ptr, ptr, ptr, i32, i32, i16, i16, i32, ptr, i16, ptr, i32, i32, i32, i32, i32, i32, ptr, i16, ptr, ptr, i32, i16, ptr, i32, i16, i16, ptr, ptr, ptr, i16, ptr, ptr, ptr, ptr, i16, i16, ptr, i16, ptr, i16, ptr, i16, ptr, i16, ptr, ptr, ptr, ptr, i16, ptr, ptr, ptr, i32, ptr, i32, ptr, ptr, i16, ptr, ptr, i32, i16, ptr, ptr, i16, i16, ptr, i16, ptr, ptr, ptr, i32, ptr, i16, i16, ptr, ptr, ptr, ptr, ptr, ptr, ptr, ptr, i16, i32, i16, ptr, ptr, ptr, ptr, i32, ptr, ptr, ptr, i16, ptr, ptr, ptr, i16, ptr, i16, ptr, i16, i16, ptr }
%struct.dbd_id_rc_msg = type { i32, i64, i64, i32 }
%struct.job_record = type { i32, ptr, ptr, ptr, ptr, i16, i32, i32, i32, ptr, i32, ptr, ptr, i16, ptr, double, i64, ptr, ptr, ptr, ptr, ptr, ptr, i32, ptr, i32, i64, i64, i32, i32, ptr, i16, i64, i64, i8, i32, ptr, ptr, ptr, ptr, ptr, ptr, ptr, ptr, i32, ptr, ptr, i32, ptr, i32, ptr, i32, ptr, i32, ptr, ptr, ptr, ptr, ptr, ptr, i32, i16, i64, ptr, ptr, ptr, ptr, %struct.acct_policy_limit_set_t, i16, ptr, ptr, ptr, ptr, ptr, i32, ptr, ptr, ptr, ptr, ptr, i32, i32, ptr, ptr, ptr, i16, ptr, ptr, i8, ptr, ptr, i64, i64, i8, i32, i32, i8, i32, ptr, i32, i64, i32, ptr, ptr, ptr, i8, i16, i64, i32, ptr, ptr, ptr, ptr, ptr, i16, i32, ptr, ptr, ptr, ptr, i32, ptr, i32, i16, i64, ptr, i32, i32, ptr, i64, ptr, ptr, i64, i32, i32, i64, i32, i32, ptr, ptr, ptr, ptr, ptr, ptr, ptr, ptr, ptr, ptr, ptr, ptr, i32, ptr, i16, i16, i16, i16, ptr, i32, i32, i8, i64 }
%struct.acct_policy_limit_set_t = type { i16, i16, ptr }
%struct.job_details_t = type { i32, ptr, i64, ptr, i32, ptr, i64, ptr, i16, i16, ptr, i16, i32, i32, i32, i16, ptr, i16, ptr, ptr, ptr, i16, ptr, ptr, ptr, ptr, i32, ptr, ptr, ptr, ptr, ptr, i32, i32, i32, ptr, ptr, i16, i32, i32, i32, i32, i32, i32, i16, i16, i32, i8, i8, i32, i32, i64, i64, i16, i32, ptr, ptr, i8, ptr, i32, ptr, i64, ptr, ptr, i16, i16, i16, i8, ptr, ptr, ptr, ptr, ptr, ptr, i64, i32, i32, i8, ptr, i16, ptr, ptr, i16 }

@slurmdbd_conn = dso_local global ptr null, align 8
@slurm_conf = external global %struct.slurm_conf_t, align 8

; Function Attrs: nounwind uwtable
define internal i32 @_sending_script_env(ptr noundef %0, ptr noundef %1) #0 {
  %3 = alloca i32, align 4
  %4 = alloca ptr, align 8
  %5 = alloca ptr, align 8
  %6 = alloca ptr, align 8
  %7 = alloca ptr, align 8
  %8 = alloca i32, align 4
  store ptr %0, ptr %4, align 8
  store ptr %1, ptr %5, align 8
  call void @llvm.lifetime.start.p0(i64 8, ptr %6) #9
  %9 = load ptr, ptr %4, align 8
  store ptr %9, ptr %6, align 8
  call void @llvm.lifetime.start.p0(i64 8, ptr %7) #9
  %10 = load ptr, ptr %6, align 8
  %11 = getelementptr inbounds nuw %struct.dbd_id_rc_msg, ptr %10, i32 0, i32 0
  %12 = load i32, ptr %11, align 8
  %13 = call ptr @find_job_record(i32 noundef %12)
  store ptr %13, ptr %7, align 8
  %14 = icmp ne ptr %13, null
  br i1 %14, label %16, label %15

15:                                               ; preds = %2
  store i32 0, ptr %3, align 4
  store i32 1, ptr %8, align 4
  br label %77

16:                                               ; preds = %2
  %17 = load i32, ptr getelementptr inbounds nuw (%struct.slurm_conf_t, ptr @slurm_conf, i32 0, i32 34), align 4
  %18 = zext i32 %17 to i64
  %19 = and i64 %18, 512
  %20 = icmp ne i64 %19, 0
  br i1 %20, label %21, label %39

21:                                               ; preds = %16
  %22 = load ptr, ptr %6, align 8
  %23 = getelementptr inbounds nuw %struct.dbd_id_rc_msg, ptr %22, i32 0, i32 2
  %24 = load i64, ptr %23, align 8
  %25 = and i64 %24, 34359738368
  %26 = icmp ne i64 %25, 0
  br i1 %26, label %27, label %39

27:                                               ; preds = %21
  %28 = load ptr, ptr %7, align 8
  %29 = getelementptr inbounds nuw %struct.job_record, ptr %28, i32 0, i32 30
  %30 = load ptr, ptr %29, align 8
  %31 = getelementptr inbounds nuw %struct.job_details_t, ptr %30, i32 0, i32 69
  %32 = load ptr, ptr %31, align 8
  %33 = icmp ne ptr %32, null
  br i1 %33, label %34, label %39

34:                                               ; preds = %27
  %35 = load ptr, ptr %7, align 8
  %36 = getelementptr inbounds nuw %struct.job_record, ptr %35, i32 0, i32 16
  %37 = load i64, ptr %36, align 8
  %38 = or i64 %37, 34359738368
  store i64 %38, ptr %36, align 8
  br label %39

39:                                               ; preds = %34, %27, %21, %16
  %40 = load i32, ptr getelementptr inbounds nuw (%struct.slurm_conf_t, ptr @slurm_conf, i32 0, i32 34), align 4
  %41 = zext i32 %40 to i64
  %42 = and i64 %41, 1024
  %43 = icmp ne i64 %42, 0
  br i1 %43, label %44, label %62

44:                                               ; preds = %39
  %45 = load ptr, ptr %6, align 8
  %46 = getelementptr inbounds nuw %struct.dbd_id_rc_msg, ptr %45, i32 0, i32 2
  %47 = load i64, ptr %46, align 8
  %48 = and i64 %47, 64
  %49 = icmp ne i64 %48, 0
  br i1 %49, label %50, label %62

50:                                               ; preds = %44
  %51 = load ptr, ptr %7, align 8
  %52 = getelementptr inbounds nuw %struct.job_record, ptr %51, i32 0, i32 30
  %53 = load ptr, ptr %52, align 8
  %54 = getelementptr inbounds nuw %struct.job_details_t, ptr %53, i32 0, i32 22
  %55 = load ptr, ptr %54, align 8
  %56 = icmp ne ptr %55, null
  br i1 %56, label %57, label %62

57:                                               ; preds = %50
  %58 = load ptr, ptr %7, align 8
  %59 = getelementptr inbounds nuw %struct.job_record, ptr %58, i32 0, i32 16
  %60 = load i64, ptr %59, align 8
  %61 = or i64 %60, 64
  store i64 %61, ptr %59, align 8
  br label %62

62:                                               ; preds = %57, %50, %44, %39
  %63 = load ptr, ptr @slurmdbd_conn, align 8
  %64 = load ptr, ptr %7, align 8
  %65 = call i32 @jobacct_storage_p_job_heavy(ptr noundef %63, ptr noundef %64)
  %66 = icmp eq i32 %65, 0
  br i1 %66, label %67, label %76

67:                                               ; preds = %62
  %68 = load ptr, ptr %7, align 8
  %69 = getelementptr inbounds nuw %struct.job_record, ptr %68, i32 0, i32 16
  %70 = load i64, ptr %69, align 8
  %71 = and i64 %70, -34359738369
  store i64 %71, ptr %69, align 8
  %72 = load ptr, ptr %7, align 8
  %73 = getelementptr inbounds nuw %struct.job_record, ptr %72, i32 0, i32 16
  %74 = load i64, ptr %73, align 8
  %75 = and i64 %74, -65
  store i64 %75, ptr %73, align 8
  br label %76

76:                                               ; preds = %67, %62
  store i32 0, ptr %3, align 4
  store i32 1, ptr %8, align 4
  br label %77

77:                                               ; preds = %76, %15
  call void @llvm.lifetime.end.p0(i64 8, ptr %7) #9
  call void @llvm.lifetime.end.p0(i64 8, ptr %6) #9
  %78 = load i32, ptr %3, align 4
  ret i32 %78
}