; Function Attrs: nounwind uwtable
define internal noundef i32 @_sending_script_env(ptr noundef readonly captures(none) %0, ptr readnone captures(none) %1) #0 {
  %3 = load i32, ptr %0, align 8
  %4 = tail call ptr @find_job_record(i32 noundef %3) #13
  %.not = icmp eq ptr %4, null
  br i1 %.not, label %45, label %5

5:                                                ; preds = %2
  %6 = load i32, ptr getelementptr inbounds nuw (i8, ptr @slurm_conf, i64 268), align 4
  %7 = and i32 %6, 512
  %.not11 = icmp eq i32 %7, 0
  br i1 %.not11, label %21, label %8

8:                                                ; preds = %5
  %9 = getelementptr inbounds nuw i8, ptr %0, i64 16
  %10 = load i64, ptr %9, align 8
  %11 = and i64 %10, 34359738368
  %.not12 = icmp eq i64 %11, 0
  br i1 %.not12, label %21, label %12

12:                                               ; preds = %8
  %13 = getelementptr inbounds nuw i8, ptr %4, i64 216
  %14 = load ptr, ptr %13, align 8
  %15 = getelementptr inbounds nuw i8, ptr %14, i64 424
  %16 = load ptr, ptr %15, align 8
  %.not13 = icmp eq ptr %16, null
  br i1 %.not13, label %21, label %17

17:                                               ; preds = %12
  %18 = getelementptr inbounds nuw i8, ptr %4, i64 112
  %19 = load i64, ptr %18, align 8
  %20 = or i64 %19, 34359738368
  store i64 %20, ptr %18, align 8
  %.pre = load i32, ptr getelementptr inbounds nuw (i8, ptr @slurm_conf, i64 268), align 4
  br label %21

21:                                               ; preds = %17, %12, %8, %5
  %22 = phi i32 [ %.pre, %17 ], [ %6, %12 ], [ %6, %8 ], [ %6, %5 ]
  %23 = and i32 %22, 1024
  %.not14 = icmp eq i32 %23, 0
  br i1 %.not14, label %37, label %24

24:                                               ; preds = %21
  %25 = getelementptr inbounds nuw i8, ptr %0, i64 16
  %26 = load i64, ptr %25, align 8
  %27 = and i64 %26, 64
  %.not15 = icmp eq i64 %27, 0
  br i1 %.not15, label %37, label %28

28:                                               ; preds = %24
  %29 = getelementptr inbounds nuw i8, ptr %4, i64 216
  %30 = load ptr, ptr %29, align 8
  %31 = getelementptr inbounds nuw i8, ptr %30, i64 152
  %32 = load ptr, ptr %31, align 8
  %.not16 = icmp eq ptr %32, null
  br i1 %.not16, label %37, label %33

33:                                               ; preds = %28
  %34 = getelementptr inbounds nuw i8, ptr %4, i64 112
  %35 = load i64, ptr %34, align 8
  %36 = or i64 %35, 64
  store i64 %36, ptr %34, align 8
  br label %37

37:                                               ; preds = %33, %28, %24, %21
  %38 = load ptr, ptr @slurmdbd_conn, align 8
  %39 = tail call i32 @jobacct_storage_p_job_heavy(ptr noundef %38, ptr noundef nonnull %4) #13
  %40 = icmp eq i32 %39, 0
  br i1 %40, label %41, label %45

41:                                               ; preds = %37
  %42 = getelementptr inbounds nuw i8, ptr %4, i64 112
  %43 = load i64, ptr %42, align 8
  %44 = and i64 %43, -34359738433
  store i64 %44, ptr %42, align 8
  br label %45

45:                                               ; preds = %37, %41, %2
  ret i32 0
}